target datalayout = "e-m:e-p270:32:32-p271:32:32-p272:64:64-i64:64-i128:128-f80:128-n8:16:32:64-S128"
target triple = "x86_64-pc-linux-gnu"

%"class.core_hashtable<obj_hash_entry<expr>, obj_ptr_hash<expr>, ptr_eq<expr>>::iterator" = type { ptr, ptr }
%"class.spacer::iuc_proof" = type { ptr, %class.obj_ref, %class.ast_mark, %class.ast_mark, %class.ast_mark, %class.obj_hashtable, %class.obj_hashtable.1 }
%class.obj_ref = type { ptr, ptr }
%class.ast_mark = type { ptr, %class.obj_mark, %class.obj_mark.0 }
%class.obj_mark = type { [8 x i8], %class.bit_vector }
%class.bit_vector = type { i32, i32, ptr }
%class.obj_mark.0 = type { [8 x i8], %class.bit_vector }
%class.obj_hashtable = type { %class.core_hashtable.base, [4 x i8] }
%class.core_hashtable.base = type <{ ptr, i32, i32, i32 }>
%class.obj_hashtable.1 = type { %class.core_hashtable.base.5, [4 x i8] }
%class.core_hashtable.base.5 = type <{ ptr, i32, i32, i32 }>
%struct.default_t2uint = type { i8 }
%class.core_hashtable = type <{ ptr, i32, i32, i32, [4 x i8] }>
%class.obj_hash_entry.48 = type { ptr }
%"class.spacer::collect_pure_proc" = type { ptr }

; Function Attrs: mustprogress nounwind uwtable
define linkonce_odr hidden noundef zeroext i1 @_ZNK14obj_hash_entryI4exprE7is_usedEv(ptr noundef nonnull align 8 dereferenceable(8) %0) #7 comdat align 2 {
  %2 = alloca ptr, align 8
  store ptr %0, ptr %2, align 8, !tbaa !119
  %3 = load ptr, ptr %2, align 8
  %4 = getelementptr inbounds nuw %class.obj_hash_entry.48, ptr %3, i32 0, i32 0
  %5 = load ptr, ptr %4, align 8, !tbaa !298
  %6 = icmp ne ptr %5, null
  br i1 %6, label %7, label %11

7:                                                ; preds = %1
  %8 = getelementptr inbounds nuw %class.obj_hash_entry.48, ptr %3, i32 0, i32 0
  %9 = load ptr, ptr %8, align 8, !tbaa !298
  %10 = icmp ne ptr %9, inttoptr (i64 1 to ptr)
  br label %11

11:                                               ; preds = %7, %1
  %12 = phi i1 [ false, %1 ], [ %10, %7 ]
  ret i1 %12
}

; Function Attrs: mustprogress nounwind uwtable
define linkonce_odr hidden void @_ZN14core_hashtableI14obj_hash_entryI4exprE12obj_ptr_hashIS1_E6ptr_eqIS1_EE8iterator12move_to_usedEv(ptr noundef nonnull align 8 dereferenceable(16) %0) #7 comdat align 2 {
  %2 = alloca ptr, align 8
  store ptr %0, ptr %2, align 8, !tbaa !34
  %3 = load ptr, ptr %2, align 8
  br label %4

4:                                                ; preds = %17, %1
  %5 = getelementptr inbounds nuw %"class.core_hashtable<obj_hash_entry<expr>, obj_ptr_hash<expr>, ptr_eq<expr>>::iterator", ptr %3, i32 0, i32 0
  %6 = load ptr, ptr %5, align 8, !tbaa !36
  %7 = getelementptr inbounds nuw %"class.core_hashtable<obj_hash_entry<expr>, obj_ptr_hash<expr>, ptr_eq<expr>>::iterator", ptr %3, i32 0, i32 1
  %8 = load ptr, ptr %7, align 8, !tbaa !351
  %9 = icmp ne ptr %6, %8
  br i1 %9, label %10, label %15

10:                                               ; preds = %4
  %11 = getelementptr inbounds nuw %"class.core_hashtable<obj_hash_entry<expr>, obj_ptr_hash<expr>, ptr_eq<expr>>::iterator", ptr %3, i32 0, i32 0
  %12 = load ptr, ptr %11, align 8, !tbaa !36
  %13 = call noundef zeroext i1 @_ZNK14obj_hash_entryI4exprE7is_usedEv(ptr noundef nonnull align 8 dereferenceable(8) %12)
  %14 = xor i1 %13, true
  br label %15

15:                                               ; preds = %10, %4
  %16 = phi i1 [ false, %4 ], [ %14, %10 ]
  br i1 %16, label %17, label %21

17:                                               ; preds = %15
  %18 = getelementptr inbounds nuw %"class.core_hashtable<obj_hash_entry<expr>, obj_ptr_hash<expr>, ptr_eq<expr>>::iterator", ptr %3, i32 0, i32 0
  %19 = load ptr, ptr %18, align 8, !tbaa !36
  %20 = getelementptr inbounds nuw %class.obj_hash_entry.48, ptr %19, i32 1
  store ptr %20, ptr %18, align 8, !tbaa !36
  br label %4, !llvm.loop !352

21:                                               ; preds = %15
  ret void
}

; Function Attrs: mustprogress nounwind uwtable
define linkonce_odr hidden noundef nonnull align 8 dereferenceable(8) ptr @_ZN14obj_hash_entryI4exprE8get_dataEv(ptr noundef nonnull align 8 dereferenceable(8) %0) #7 comdat align 2 {
  %2 = alloca ptr, align 8
  store ptr %0, ptr %2, align 8, !tbaa !119
  %3 = load ptr, ptr %2, align 8
  %4 = getelementptr inbounds nuw %class.obj_hash_entry.48, ptr %3, i32 0, i32 0
  ret ptr %4
}

; Function Attrs: mustprogress uwtable
define linkonce_odr hidden void @_ZN14core_hashtableI14obj_hash_entryI4exprE12obj_ptr_hashIS1_E6ptr_eqIS1_EE8iteratorC2EPS2_S9_(ptr noundef nonnull align 8 dereferenceable(16) %0, ptr noundef %1, ptr noundef %2) unnamed_addr #4 comdat align 2 {
  %4 = alloca ptr, align 8
  %5 = alloca ptr, align 8
  %6 = alloca ptr, align 8
  store ptr %0, ptr %4, align 8, !tbaa !34
  store ptr %1, ptr %5, align 8, !tbaa !119
  store ptr %2, ptr %6, align 8, !tbaa !119
  %7 = load ptr, ptr %4, align 8
  %8 = getelementptr inbounds nuw %"class.core_hashtable<obj_hash_entry<expr>, obj_ptr_hash<expr>, ptr_eq<expr>>::iterator", ptr %7, i32 0, i32 0
  %9 = load ptr, ptr %5, align 8, !tbaa !119
  store ptr %9, ptr %8, align 8, !tbaa !36
  %10 = getelementptr inbounds nuw %"class.core_hashtable<obj_hash_entry<expr>, obj_ptr_hash<expr>, ptr_eq<expr>>::iterator", ptr %7, i32 0, i32 1
  %11 = load ptr, ptr %6, align 8, !tbaa !119
  store ptr %11, ptr %10, align 8, !tbaa !351
  call void @_ZN14core_hashtableI14obj_hash_entryI4exprE12obj_ptr_hashIS1_E6ptr_eqIS1_EE8iterator12move_to_usedEv(ptr noundef nonnull align 8 dereferenceable(16) %7)
  ret void
}

; Function Attrs: mustprogress nounwind uwtable
define linkonce_odr hidden void @_ZN10bit_vectorC2Ev(ptr noundef nonnull align 8 dereferenceable(16) %0) unnamed_addr #7 comdat align 2 {
  %2 = alloca ptr, align 8
  store ptr %0, ptr %2, align 8, !tbaa !107
  %3 = load ptr, ptr %2, align 8
  %4 = getelementptr inbounds nuw %class.bit_vector, ptr %3, i32 0, i32 0
  store i32 0, ptr %4, align 8, !tbaa !109
  %5 = getelementptr inbounds nuw %class.bit_vector, ptr %3, i32 0, i32 1
  store i32 0, ptr %5, align 4, !tbaa !110
  %6 = getelementptr inbounds nuw %class.bit_vector, ptr %3, i32 0, i32 2
  store ptr null, ptr %6, align 8, !tbaa !111
  ret void
}

; Function Attrs: mustprogress nounwind uwtable
define linkonce_odr hidden noundef nonnull align 8 dereferenceable(16) ptr @_ZN14core_hashtableI14obj_hash_entryI4exprE12obj_ptr_hashIS1_E6ptr_eqIS1_EE8iteratorppEv(ptr noundef nonnull align 8 dereferenceable(16) %0) #7 comdat align 2 {
  %2 = alloca ptr, align 8
  store ptr %0, ptr %2, align 8, !tbaa !34
  %3 = load ptr, ptr %2, align 8
  %4 = getelementptr inbounds nuw %"class.core_hashtable<obj_hash_entry<expr>, obj_ptr_hash<expr>, ptr_eq<expr>>::iterator", ptr %3, i32 0, i32 0
  %5 = load ptr, ptr %4, align 8, !tbaa !36
  %6 = getelementptr inbounds nuw %class.obj_hash_entry.48, ptr %5, i32 1
  store ptr %6, ptr %4, align 8, !tbaa !36
  call void @_ZN14core_hashtableI14obj_hash_entryI4exprE12obj_ptr_hashIS1_E6ptr_eqIS1_EE8iterator12move_to_usedEv(ptr noundef nonnull align 8 dereferenceable(16) %3)
  ret ptr %3
}

; Function Attrs: mustprogress uwtable
define linkonce_odr hidden void @_Z13for_each_exprIN6spacer17collect_pure_procEEvRT_R8obj_markI4expr10bit_vector14default_t2uintIS5_EEPS5_(ptr noundef nonnull align 8 dereferenceable(8) %0, ptr noundef nonnull align 8 dereferenceable(24) %1, ptr noundef %2) #4 comdat {
  %4 = alloca ptr, align 8
  %5 = alloca ptr, align 8
  %6 = alloca ptr, align 8
  store ptr %0, ptr %4, align 8, !tbaa !71
  store ptr %1, ptr %5, align 8, !tbaa !67
  store ptr %2, ptr %6, align 8, !tbaa !14
  %7 = load ptr, ptr %4, align 8, !tbaa !71
  %8 = load ptr, ptr %5, align 8, !tbaa !67
  %9 = load ptr, ptr %6, align 8, !tbaa !14
  call void @_Z18for_each_expr_coreIN6spacer17collect_pure_procE8obj_markI4expr10bit_vector14default_t2uintIS3_EELb1ELb0EEvRT_RT0_PS3_(ptr noundef nonnull align 8 dereferenceable(8) %7, ptr noundef nonnull align 8 dereferenceable(24) %8, ptr noundef %9)
  ret void
}

; Function Attrs: mustprogress nounwind uwtable
define linkonce_odr hidden noundef nonnull align 8 dereferenceable(8) ptr @_ZN14core_hashtableI14obj_hash_entryI4exprE12obj_ptr_hashIS1_E6ptr_eqIS1_EE8iteratordeEv(ptr noundef nonnull align 8 dereferenceable(16) %0) #7 comdat align 2 {
  %2 = alloca ptr, align 8
  store ptr %0, ptr %2, align 8, !tbaa !34
  %3 = load ptr, ptr %2, align 8
  %4 = getelementptr inbounds nuw %"class.core_hashtable<obj_hash_entry<expr>, obj_ptr_hash<expr>, ptr_eq<expr>>::iterator", ptr %3, i32 0, i32 0
  %5 = load ptr, ptr %4, align 8, !tbaa !36
  %6 = call noundef nonnull align 8 dereferenceable(8) ptr @_ZN14obj_hash_entryI4exprE8get_dataEv(ptr noundef nonnull align 8 dereferenceable(8) %5)
  ret ptr %6
}

; Function Attrs: mustprogress nounwind uwtable
define linkonce_odr hidden noundef zeroext i1 @_ZNK14core_hashtableI14obj_hash_entryI4exprE12obj_ptr_hashIS1_E6ptr_eqIS1_EE8iteratorneERKS8_(ptr noundef nonnull align 8 dereferenceable(16) %0, ptr noundef nonnull align 8 dereferenceable(16) %1) #7 comdat align 2 {
  %3 = alloca ptr, align 8
  %4 = alloca ptr, align 8
  store ptr %0, ptr %3, align 8, !tbaa !34
  store ptr %1, ptr %4, align 8, !tbaa !34
  %5 = load ptr, ptr %3, align 8
  %6 = getelementptr inbounds nuw %"class.core_hashtable<obj_hash_entry<expr>, obj_ptr_hash<expr>, ptr_eq<expr>>::iterator", ptr %5, i32 0, i32 0
  %7 = load ptr, ptr %6, align 8, !tbaa !36
  %8 = load ptr, ptr %4, align 8, !tbaa !34
  %9 = getelementptr inbounds nuw %"class.core_hashtable<obj_hash_entry<expr>, obj_ptr_hash<expr>, ptr_eq<expr>>::iterator", ptr %8, i32 0, i32 0
  %10 = load ptr, ptr %9, align 8, !tbaa !36
  %11 = icmp ne ptr %7, %10
  ret i1 %11
}

; Function Attrs: mustprogress uwtable
define linkonce_odr hidden { ptr, ptr } @_ZNK14core_hashtableI14obj_hash_entryI4exprE12obj_ptr_hashIS1_E6ptr_eqIS1_EE3endEv(ptr noundef nonnull align 8 dereferenceable(20) %0) #4 comdat align 2 {
  %2 = alloca %"class.core_hashtable<obj_hash_entry<expr>, obj_ptr_hash<expr>, ptr_eq<expr>>::iterator", align 8
  %3 = alloca ptr, align 8
  store ptr %0, ptr %3, align 8, !tbaa !28
  %4 = load ptr, ptr %3, align 8
  %5 = getelementptr inbounds nuw %class.core_hashtable, ptr %4, i32 0, i32 0
  %6 = load ptr, ptr %5, align 8, !tbaa !30
  %7 = getelementptr inbounds nuw %class.core_hashtable, ptr %4, i32 0, i32 1
  %8 = load i32, ptr %7, align 8, !tbaa !33
  %9 = zext i32 %8 to i64
  %10 = getelementptr inbounds nuw %class.obj_hash_entry.48, ptr %6, i64 %9
  %11 = getelementptr inbounds nuw %class.core_hashtable, ptr %4, i32 0, i32 0
  %12 = load ptr, ptr %11, align 8, !tbaa !30
  %13 = getelementptr inbounds nuw %class.core_hashtable, ptr %4, i32 0, i32 1
  %14 = load i32, ptr %13, align 8, !tbaa !33
  %15 = zext i32 %14 to i64
  %16 = getelementptr inbounds nuw %class.obj_hash_entry.48, ptr %12, i64 %15
  call void @_ZN14core_hashtableI14obj_hash_entryI4exprE12obj_ptr_hashIS1_E6ptr_eqIS1_EE8iteratorC2EPS2_S9_(ptr noundef nonnull align 8 dereferenceable(16) %2, ptr noundef %10, ptr noundef %16)
  %17 = load { ptr, ptr }, ptr %2, align 8
  ret { ptr, ptr } %17
}

; Function Attrs: mustprogress uwtable
define linkonce_odr hidden { ptr, ptr } @_ZNK14core_hashtableI14obj_hash_entryI4exprE12obj_ptr_hashIS1_E6ptr_eqIS1_EE5beginEv(ptr noundef nonnull align 8 dereferenceable(20) %0) #4 comdat align 2 {
  %2 = alloca %"class.core_hashtable<obj_hash_entry<expr>, obj_ptr_hash<expr>, ptr_eq<expr>>::iterator", align 8
  %3 = alloca ptr, align 8
  store ptr %0, ptr %3, align 8, !tbaa !28
  %4 = load ptr, ptr %3, align 8
  %5 = getelementptr inbounds nuw %class.core_hashtable, ptr %4, i32 0, i32 0
  %6 = load ptr, ptr %5, align 8, !tbaa !30
  %7 = getelementptr inbounds nuw %class.core_hashtable, ptr %4, i32 0, i32 0
  %8 = load ptr, ptr %7, align 8, !tbaa !30
  %9 = getelementptr inbounds nuw %class.core_hashtable, ptr %4, i32 0, i32 1
  %10 = load i32, ptr %9, align 8, !tbaa !33
  %11 = zext i32 %10 to i64
  %12 = getelementptr inbounds nuw %class.obj_hash_entry.48, ptr %8, i64 %11
  call void @_ZN14core_hashtableI14obj_hash_entryI4exprE12obj_ptr_hashIS1_E6ptr_eqIS1_EE8iteratorC2EPS2_S9_(ptr noundef nonnull align 8 dereferenceable(16) %2, ptr noundef %6, ptr noundef %12)
  %13 = load { ptr, ptr }, ptr %2, align 8
  ret { ptr, ptr } %13
}

; Function Attrs: mustprogress nounwind uwtable
define linkonce_odr hidden void @_ZN6spacer17collect_pure_procC2ER13obj_hashtableI9func_declE(ptr noundef nonnull align 8 dereferenceable(8) %0, ptr noundef nonnull align 8 dereferenceable(20) %1) unnamed_addr #7 comdat align 2 {
  %3 = alloca ptr, align 8
  %4 = alloca ptr, align 8
  store ptr %0, ptr %3, align 8, !tbaa !71
  store ptr %1, ptr %4, align 8, !tbaa !26
  %5 = load ptr, ptr %3, align 8
  %6 = getelementptr inbounds nuw %"class.spacer::collect_pure_proc", ptr %5, i32 0, i32 0
  %7 = load ptr, ptr %4, align 8, !tbaa !26
  store ptr %7, ptr %6, align 8, !tbaa !26
  ret void
}

; Function Attrs: mustprogress uwtable
define linkonce_odr hidden void @_ZN8obj_markI4expr10bit_vector14default_t2uintIS0_EEC2ERKS3_(ptr noundef nonnull align 8 dereferenceable(24) %0, ptr noundef nonnull align 1 dereferenceable(1) %1) unnamed_addr #4 comdat align 2 {
  %3 = alloca ptr, align 8
  %4 = alloca ptr, align 8
  store ptr %0, ptr %3, align 8, !tbaa !67
  store ptr %1, ptr %4, align 8, !tbaa !69
  %5 = load ptr, ptr %3, align 8
  %6 = getelementptr inbounds nuw %class.obj_mark, ptr %5, i32 0, i32 1
  call void @_ZN10bit_vectorC2Ev(ptr noundef nonnull align 8 dereferenceable(16) %6)
  ret void
}

; Function Attrs: mustprogress uwtable
define hidden void @_ZN6spacer9iuc_proof20collect_core_symbolsEv(ptr noundef nonnull align 8 dereferenceable(240) %0) #4 align 2 personality ptr @__gxx_personality_v0 {
  %2 = alloca ptr, align 8
  %3 = alloca %class.obj_mark, align 8
  %4 = alloca %struct.default_t2uint, align 1
  %5 = alloca %"class.spacer::collect_pure_proc", align 8
  %6 = alloca ptr, align 8
  %7 = alloca i32, align 4
  %8 = alloca ptr, align 8
  %9 = alloca %"class.core_hashtable<obj_hash_entry<expr>, obj_ptr_hash<expr>, ptr_eq<expr>>::iterator", align 8
  %10 = alloca %"class.core_hashtable<obj_hash_entry<expr>, obj_ptr_hash<expr>, ptr_eq<expr>>::iterator", align 8
  %11 = alloca ptr, align 8
  store ptr %0, ptr %2, align 8, !tbaa !3
  %12 = load ptr, ptr %2, align 8
  call void @llvm.lifetime.start.p0(i64 24, ptr %3) #3
  call void @llvm.lifetime.start.p0(i64 1, ptr %4) #3
  call void @_ZN8obj_markI4expr10bit_vector14default_t2uintIS0_EEC2ERKS3_(ptr noundef nonnull align 8 dereferenceable(24) %3, ptr noundef nonnull align 1 dereferenceable(1) %4)
  call void @llvm.lifetime.end.p0(i64 1, ptr %4) #3
  call void @llvm.lifetime.start.p0(i64 8, ptr %5) #3
  %13 = getelementptr inbounds nuw %"class.spacer::iuc_proof", ptr %12, i32 0, i32 6
  invoke void @_ZN6spacer17collect_pure_procC2ER13obj_hashtableI9func_declE(ptr noundef nonnull align 8 dereferenceable(8) %5, ptr noundef nonnull align 8 dereferenceable(20) %13)
          to label %14 unwind label %34

14:                                               ; preds = %1
  call void @llvm.lifetime.start.p0(i64 8, ptr %8) #3
  %15 = getelementptr inbounds nuw %"class.spacer::iuc_proof", ptr %12, i32 0, i32 5
  store ptr %15, ptr %8, align 8, !tbaa !12
  call void @llvm.lifetime.start.p0(i64 16, ptr %9) #3
  %16 = load ptr, ptr %8, align 8, !tbaa !12
  %17 = invoke { ptr, ptr } @_ZNK14core_hashtableI14obj_hash_entryI4exprE12obj_ptr_hashIS1_E6ptr_eqIS1_EE5beginEv(ptr noundef nonnull align 8 dereferenceable(20) %16)
          to label %18 unwind label %38

18:                                               ; preds = %14
  %19 = getelementptr inbounds nuw { ptr, ptr }, ptr %9, i32 0, i32 0
  %20 = extractvalue { ptr, ptr } %17, 0
  store ptr %20, ptr %19, align 8
  %21 = getelementptr inbounds nuw { ptr, ptr }, ptr %9, i32 0, i32 1
  %22 = extractvalue { ptr, ptr } %17, 1
  store ptr %22, ptr %21, align 8
  call void @llvm.lifetime.start.p0(i64 16, ptr %10) #3
  %23 = load ptr, ptr %8, align 8, !tbaa !12
  %24 = invoke { ptr, ptr } @_ZNK14core_hashtableI14obj_hash_entryI4exprE12obj_ptr_hashIS1_E6ptr_eqIS1_EE3endEv(ptr noundef nonnull align 8 dereferenceable(20) %23)
          to label %25 unwind label %42

25:                                               ; preds = %18
  %26 = getelementptr inbounds nuw { ptr, ptr }, ptr %10, i32 0, i32 0
  %27 = extractvalue { ptr, ptr } %24, 0
  store ptr %27, ptr %26, align 8
  %28 = getelementptr inbounds nuw { ptr, ptr }, ptr %10, i32 0, i32 1
  %29 = extractvalue { ptr, ptr } %24, 1
  store ptr %29, ptr %28, align 8
  br label %30

30:                                               ; preds = %54, %25
  %31 = invoke noundef zeroext i1 @_ZNK14core_hashtableI14obj_hash_entryI4exprE12obj_ptr_hashIS1_E6ptr_eqIS1_EE8iteratorneERKS8_(ptr noundef nonnull align 8 dereferenceable(16) %9, ptr noundef nonnull align 8 dereferenceable(16) %10)
          to label %32 unwind label %42

32:                                               ; preds = %30
  br i1 %31, label %46, label %33

33:                                               ; preds = %32
  call void @llvm.lifetime.end.p0(i64 16, ptr %10) #3
  call void @llvm.lifetime.end.p0(i64 16, ptr %9) #3
  call void @llvm.lifetime.end.p0(i64 8, ptr %8) #3
  br label %61

34:                                               ; preds = %1
  %35 = landingpad { ptr, i32 }
          cleanup
  %36 = extractvalue { ptr, i32 } %35, 0
  store ptr %36, ptr %6, align 8
  %37 = extractvalue { ptr, i32 } %35, 1
  store i32 %37, ptr %7, align 4
  br label %62

38:                                               ; preds = %14
  %39 = landingpad { ptr, i32 }
          cleanup
  %40 = extractvalue { ptr, i32 } %39, 0
  store ptr %40, ptr %6, align 8
  %41 = extractvalue { ptr, i32 } %39, 1
  store i32 %41, ptr %7, align 4
  br label %60

42:                                               ; preds = %52, %30, %18
  %43 = landingpad { ptr, i32 }
          cleanup
  %44 = extractvalue { ptr, i32 } %43, 0
  store ptr %44, ptr %6, align 8
  %45 = extractvalue { ptr, i32 } %43, 1
  store i32 %45, ptr %7, align 4
  br label %59

46:                                               ; preds = %32
  call void @llvm.lifetime.start.p0(i64 8, ptr %11) #3
  %47 = invoke noundef nonnull align 8 dereferenceable(8) ptr @_ZN14core_hashtableI14obj_hash_entryI4exprE12obj_ptr_hashIS1_E6ptr_eqIS1_EE8iteratordeEv(ptr noundef nonnull align 8 dereferenceable(16) %9)
          to label %48 unwind label %55

48:                                               ; preds = %46
  %49 = load ptr, ptr %47, align 8, !tbaa !14
  store ptr %49, ptr %11, align 8, !tbaa !14
  %50 = load ptr, ptr %11, align 8, !tbaa !14
  invoke void @_Z13for_each_exprIN6spacer17collect_pure_procEEvRT_R8obj_markI4expr10bit_vector14default_t2uintIS5_EEPS5_(ptr noundef nonnull align 8 dereferenceable(8) %5, ptr noundef nonnull align 8 dereferenceable(24) %3, ptr noundef %50)
          to label %51 unwind label %55

51:                                               ; preds = %48
  call void @llvm.lifetime.end.p0(i64 8, ptr %11) #3
  br label %52

52:                                               ; preds = %51
  %53 = invoke noundef nonnull align 8 dereferenceable(16) ptr @_ZN14core_hashtableI14obj_hash_entryI4exprE12obj_ptr_hashIS1_E6ptr_eqIS1_EE8iteratorppEv(ptr noundef nonnull align 8 dereferenceable(16) %9)
          to label %54 unwind label %42

54:                                               ; preds = %52
  br label %30

55:                                               ; preds = %48, %46
  %56 = landingpad { ptr, i32 }
          cleanup
  %57 = extractvalue { ptr, i32 } %56, 0
  store ptr %57, ptr %6, align 8
  %58 = extractvalue { ptr, i32 } %56, 1
  store i32 %58, ptr %7, align 4
  call void @llvm.lifetime.end.p0(i64 8, ptr %11) #3
  br label %59

59:                                               ; preds = %55, %42
  call void @llvm.lifetime.end.p0(i64 16, ptr %10) #3
  br label %60

60:                                               ; preds = %59, %38
  call void @llvm.lifetime.end.p0(i64 16, ptr %9) #3
  call void @llvm.lifetime.end.p0(i64 8, ptr %8) #3
  br label %62

61:                                               ; preds = %33
  call void @llvm.lifetime.end.p0(i64 8, ptr %5) #3
  call void @_ZN8obj_markI4expr10bit_vector14default_t2uintIS0_EED2Ev(ptr noundef nonnull align 8 dereferenceable(24) %3) #3
  call void @llvm.lifetime.end.p0(i64 24, ptr %3) #3
  ret void

62:                                               ; preds = %60, %34
  call void @llvm.lifetime.end.p0(i64 8, ptr %5) #3
  call void @_ZN8obj_markI4expr10bit_vector14default_t2uintIS0_EED2Ev(ptr noundef nonnull align 8 dereferenceable(24) %3) #3
  call void @llvm.lifetime.end.p0(i64 24, ptr %3) #3
  br label %63

63:                                               ; preds = %62
  %64 = load ptr, ptr %6, align 8
  %65 = load i32, ptr %7, align 4
  %66 = insertvalue { ptr, i32 } poison, ptr %64, 0
  %67 = insertvalue { ptr, i32 } %66, i32 %65, 1
  resume { ptr, i32 } %67
}