; Function Attrs: mustprogress uwtable
define hidden void @_ZN6spacer9iuc_proof20collect_core_symbolsEv(ptr noundef nonnull align 8 dereferenceable(240) %0) local_unnamed_addr #3 align 2 personality ptr @__gxx_personality_v0 {
  %2 = alloca %class.obj_mark, align 8
  %3 = alloca %"class.spacer::collect_pure_proc", align 8
  call void @llvm.lifetime.start.p0(i64 24, ptr nonnull %2) #20
  %4 = getelementptr inbounds nuw i8, ptr %2, i64 8
  call void @llvm.memset.p0.i64(ptr noundef nonnull align 8 dereferenceable(16) %4, i8 0, i64 16, i1 false)
  call void @llvm.lifetime.start.p0(i64 8, ptr nonnull %3) #20
  %5 = getelementptr inbounds nuw i8, ptr %0, i64 216
  store ptr %5, ptr %3, align 8, !tbaa !37
  %6 = getelementptr inbounds nuw i8, ptr %0, i64 192
  %7 = load ptr, ptr %6, align 8, !tbaa !19
  %8 = getelementptr inbounds nuw i8, ptr %0, i64 200
  %9 = load i32, ptr %8, align 8, !tbaa !22
  %10 = zext i32 %9 to i64
  %11 = getelementptr inbounds nuw %class.obj_hash_entry.48, ptr %7, i64 %10
  %.not1.i.i.i = icmp eq i32 %9, 0
  br i1 %.not1.i.i.i, label %.loopexit, label %.lr.ph.i.i.i

.lr.ph.i.i.i:                                     ; preds = %1, %13
  %.sroa.0.0.i = phi ptr [ %14, %13 ], [ %7, %1 ]
  %12 = load ptr, ptr %.sroa.0.0.i, align 8, !tbaa !16
  %switch.i.i.i = icmp ult ptr %12, inttoptr (i64 2 to ptr)
  br i1 %switch.i.i.i, label %13, label %.loopexit

13:                                               ; preds = %.lr.ph.i.i.i
  %14 = getelementptr inbounds nuw i8, ptr %.sroa.0.0.i, i64 8
  %.not.i.i.i = icmp eq ptr %14, %11
  br i1 %.not.i.i.i, label %._crit_edge.thread, label %.lr.ph.i.i.i, !llvm.loop !34

.loopexit:                                        ; preds = %.lr.ph.i.i.i, %1
  %.sroa.0.1.i = phi ptr [ %7, %1 ], [ %.sroa.0.0.i, %.lr.ph.i.i.i ]
  %.not15 = icmp eq ptr %.sroa.0.1.i, %11
  br i1 %.not15, label %._crit_edge.thread, label %.lr.ph

._crit_edge.thread:                               ; preds = %13, %.loopexit
  call void @llvm.lifetime.end.p0(i64 8, ptr nonnull %3) #20
  br label %_ZN8obj_markI4expr10bit_vector14default_t2uintIS0_EED2Ev.exit

._crit_edge:                                      ; preds = %_ZN14core_hashtableI14obj_hash_entryI4exprE12obj_ptr_hashIS1_E6ptr_eqIS1_EE8iteratorppEv.exit
  %.phi.trans.insert = getelementptr inbounds nuw i8, ptr %2, i64 16
  %.pre = load ptr, ptr %.phi.trans.insert, align 8, !tbaa !39
  call void @llvm.lifetime.end.p0(i64 8, ptr nonnull %3) #20
  %15 = icmp eq ptr %.pre, null
  br i1 %15, label %_ZN8obj_markI4expr10bit_vector14default_t2uintIS0_EED2Ev.exit, label %16

16:                                               ; preds = %._crit_edge
  invoke void @_ZN6memory10deallocateEPv(ptr noundef nonnull %.pre)
          to label %_ZN8obj_markI4expr10bit_vector14default_t2uintIS0_EED2Ev.exit unwind label %17

17:                                               ; preds = %16
  %18 = landingpad { ptr, i32 }
          catch ptr null
  %19 = extractvalue { ptr, i32 } %18, 0
  call void @__clang_call_terminate(ptr %19) #21
  unreachable

_ZN8obj_markI4expr10bit_vector14default_t2uintIS0_EED2Ev.exit: ; preds = %._crit_edge.thread, %._crit_edge, %16
  call void @llvm.lifetime.end.p0(i64 24, ptr nonnull %2) #20
  ret void

.lr.ph:                                           ; preds = %.loopexit, %_ZN14core_hashtableI14obj_hash_entryI4exprE12obj_ptr_hashIS1_E6ptr_eqIS1_EE8iteratorppEv.exit
  %.sroa.011.016 = phi ptr [ %.sroa.011.2, %_ZN14core_hashtableI14obj_hash_entryI4exprE12obj_ptr_hashIS1_E6ptr_eqIS1_EE8iteratorppEv.exit ], [ %.sroa.0.1.i, %.loopexit ]
  %20 = load ptr, ptr %.sroa.011.016, align 8, !tbaa !36
  invoke void @_Z18for_each_expr_coreIN6spacer17collect_pure_procE8obj_markI4expr10bit_vector14default_t2uintIS3_EELb1ELb0EEvRT_RT0_PS3_(ptr noundef nonnull align 8 dereferenceable(8) %3, ptr noundef nonnull align 8 dereferenceable(24) %2, ptr noundef %20)
          to label %_Z13for_each_exprIN6spacer17collect_pure_procEEvRT_R8obj_markI4expr10bit_vector14default_t2uintIS5_EEPS5_.exit unwind label %25

_Z13for_each_exprIN6spacer17collect_pure_procEEvRT_R8obj_markI4expr10bit_vector14default_t2uintIS5_EEPS5_.exit: ; preds = %.lr.ph
  %21 = getelementptr inbounds nuw i8, ptr %.sroa.011.016, i64 8
  %.not1.i.i = icmp eq ptr %21, %11
  br i1 %.not1.i.i, label %_ZN14core_hashtableI14obj_hash_entryI4exprE12obj_ptr_hashIS1_E6ptr_eqIS1_EE8iteratorppEv.exit, label %.lr.ph.i.i

.lr.ph.i.i:                                       ; preds = %_Z13for_each_exprIN6spacer17collect_pure_procEEvRT_R8obj_markI4expr10bit_vector14default_t2uintIS5_EEPS5_.exit, %23
  %.sroa.011.1 = phi ptr [ %24, %23 ], [ %21, %_Z13for_each_exprIN6spacer17collect_pure_procEEvRT_R8obj_markI4expr10bit_vector14default_t2uintIS5_EEPS5_.exit ]
  %22 = load ptr, ptr %.sroa.011.1, align 8, !tbaa !16
  %switch.i.i = icmp ult ptr %22, inttoptr (i64 2 to ptr)
  br i1 %switch.i.i, label %23, label %_ZN14core_hashtableI14obj_hash_entryI4exprE12obj_ptr_hashIS1_E6ptr_eqIS1_EE8iteratorppEv.exit

23:                                               ; preds = %.lr.ph.i.i
  %24 = getelementptr inbounds nuw i8, ptr %.sroa.011.1, i64 8
  %.not.i.i = icmp eq ptr %24, %11
  br i1 %.not.i.i, label %_ZN14core_hashtableI14obj_hash_entryI4exprE12obj_ptr_hashIS1_E6ptr_eqIS1_EE8iteratorppEv.exit, label %.lr.ph.i.i, !llvm.loop !34

_ZN14core_hashtableI14obj_hash_entryI4exprE12obj_ptr_hashIS1_E6ptr_eqIS1_EE8iteratorppEv.exit: ; preds = %.lr.ph.i.i, %23, %_Z13for_each_exprIN6spacer17collect_pure_procEEvRT_R8obj_markI4expr10bit_vector14default_t2uintIS5_EEPS5_.exit
  %.sroa.011.2 = phi ptr [ %21, %_Z13for_each_exprIN6spacer17collect_pure_procEEvRT_R8obj_markI4expr10bit_vector14default_t2uintIS5_EEPS5_.exit ], [ %.sroa.011.1, %.lr.ph.i.i ], [ %24, %23 ]
  %.not = icmp eq ptr %.sroa.011.2, %11
  br i1 %.not, label %._crit_edge, label %.lr.ph

25:                                               ; preds = %.lr.ph
  %26 = landingpad { ptr, i32 }
          cleanup
  call void @llvm.lifetime.end.p0(i64 8, ptr nonnull %3) #20
  call void @_ZN8obj_markI4expr10bit_vector14default_t2uintIS0_EED2Ev(ptr noundef nonnull align 8 dereferenceable(24) %2) #20
  call void @llvm.lifetime.end.p0(i64 24, ptr nonnull %2) #20
  resume { ptr, i32 } %26
}